(dp1
S'failed'
p2
(lp3
sS'source_names'
p4
(lp5
S'tests/unit/word_bag_tests.py:test_get_word_from_bag_returns_item_from_input_list'
p6
aS'tests/unit/word_bag_tests.py:test_get_word_from_bag_returns_item_from_input_list'
p7
asS'ids'
p8
(dp9
I1
(S'/home/tom/Documents/personal-projects/PolishCaseTrainer/tests/unit/word_bag_tests.py'
S'unit.word_bag_tests'
p10
S'test_get_word_from_bag_returns_item_from_input_list'
p11
tp12
ss.