(dp1
S'failed'
p2
(lp3
sS'source_names'
p4
(lp5
S'tests/unit/word_bag_tests.py:test_get_word_from_bag_returns_item_from_input_list'
p6
aS'tests/unit/word_bag_tests.py:test_get_word_from_bag_returns_item_from_input_list'
p7
aS'tests/unit/question_tests.py:test_noun_case_question_fails_if_adjective_doesnt_have_forms_for_gender'
p8
aS'tests/unit/question_tests.py:test_noun_case_question_fails_if_adjective_doesnt_have_forms_for_gender'
p9
asS'ids'
p10
(dp11
I1
(S'/home/tom/Documents/personal-projects/PolishCaseTrainer/tests/unit/word_bag_tests.py'
S'unit.word_bag_tests'
S'test_get_word_from_bag_returns_item_from_input_list'
tp12
sI2
(S'/home/tom/Documents/personal-projects/PolishCaseTrainer/tests/unit/question_tests.py'
S'unit.question_tests'
p13
S'test_noun_case_question_fails_if_adjective_doesnt_have_forms_for_gender'
p14
tp15
ss.